target datalayout = "e-m:e-p270:32:32-p271:32:32-p272:64:64-i64:64-i128:128-f80:128-n8:16:32:64-S128"
target triple = "x86_64-pc-linux-gnu"

%struct.iseq_link_anchor = type { %struct.iseq_link_element, ptr }
%struct.iseq_link_element = type { i32, ptr, ptr }
%struct.iseq_compile_data = type { i64, i64, ptr, ptr, ptr, ptr, ptr, %struct.anon.13, %struct.anon.14, i8, i8, i32, i32, i32, i32, i32, i32, i32, ptr, ptr, ptr, ptr, i8 }
%struct.anon.13 = type { ptr, ptr }
%struct.anon.14 = type { ptr, ptr }
%struct.rb_iseq_struct = type { i64, i64, ptr, %union.anon.15 }
%union.anon.15 = type { %struct.anon.16 }
%struct.anon.16 = type { i64, i32 }
%struct.rb_code_location_struct = type { %struct.rb_code_position_struct, %struct.rb_code_position_struct }
%struct.rb_code_position_struct = type { i32, i32 }
%struct.RNode = type { i64, %struct.rb_code_location_struct, i32 }
%struct.iseq_label_data = type { %struct.iseq_link_element, i32, i32, i32, i32, i32, i8 }
%struct.RNode_ARYPTN = type { %struct.RNode, ptr, ptr, ptr, ptr }

@.str.34 = private unnamed_addr constant [4 x i8] c"add\00", align 1

; Function Attrs: inlinehint nounwind sspstrong uwtable
define internal i32 @RB_FIX2INT(i64 noundef %0) #3 {
  %2 = alloca i64, align 8
  %3 = alloca i64, align 8
  store i64 %0, ptr %2, align 8, !tbaa !7
  call void @llvm.lifetime.start.p0(i64 8, ptr %3) #31
  %4 = load i64, ptr %2, align 8, !tbaa !7
  %5 = call i64 @rb_fix2int(i64 noundef %4)
  store i64 %5, ptr %3, align 8, !tbaa !7
  %6 = load i64, ptr %3, align 8, !tbaa !7
  %7 = trunc i64 %6 to i32
  call void @llvm.lifetime.end.p0(i64 8, ptr %3) #31
  ret i32 %7
}

; Function Attrs: inlinehint nounwind sspstrong uwtable
define internal ptr @ISEQ_COMPILE_DATA(ptr noundef %0) #3 {
  %2 = alloca ptr, align 8
  %3 = alloca ptr, align 8
  store ptr %0, ptr %3, align 8, !tbaa !11
  %4 = load ptr, ptr %3, align 8, !tbaa !11
  %5 = getelementptr inbounds nuw %struct.rb_iseq_struct, ptr %4, i32 0, i32 0
  %6 = load i64, ptr %5, align 8, !tbaa !46
  %7 = and i64 %6, 262144
  %8 = icmp ne i64 %7, 0
  br i1 %8, label %9, label %13

9:                                                ; preds = %1
  %10 = load ptr, ptr %3, align 8, !tbaa !11
  %11 = getelementptr inbounds nuw %struct.rb_iseq_struct, ptr %10, i32 0, i32 3
  %12 = load ptr, ptr %11, align 8, !tbaa !49
  store ptr %12, ptr %2, align 8
  br label %14

13:                                               ; preds = %1
  store ptr null, ptr %2, align 8
  br label %14

14:                                               ; preds = %13, %9
  %15 = load ptr, ptr %2, align 8
  ret ptr %15
}

; Function Attrs: nounwind sspstrong uwtable
define internal void @verify_list(ptr noundef %0, ptr noundef %1) #0 {
  %3 = alloca ptr, align 8
  %4 = alloca ptr, align 8
  store ptr %0, ptr %3, align 8, !tbaa !91
  store ptr %1, ptr %4, align 8, !tbaa !37
  ret void
}

; Function Attrs: nounwind sspstrong uwtable
define internal i32 @iseq_compile_each(ptr noundef %0, ptr noundef %1, ptr noundef %2, i32 noundef %3) #0 {
  %5 = alloca i32, align 4
  %6 = alloca ptr, align 8
  %7 = alloca ptr, align 8
  %8 = alloca ptr, align 8
  %9 = alloca i32, align 4
  %10 = alloca i32, align 4
  store ptr %0, ptr %6, align 8, !tbaa !11
  store ptr %1, ptr %7, align 8, !tbaa !37
  store ptr %2, ptr %8, align 8, !tbaa !73
  store i32 %3, ptr %9, align 4, !tbaa !41
  %11 = load ptr, ptr %8, align 8, !tbaa !73
  %12 = icmp eq ptr %11, null
  br i1 %12, label %13, label %33

13:                                               ; preds = %4
  %14 = load i32, ptr %9, align 4, !tbaa !41
  %15 = icmp ne i32 %14, 0
  br i1 %15, label %32, label %16

16:                                               ; preds = %13
  call void @llvm.lifetime.start.p0(i64 4, ptr %10) #31
  %17 = load ptr, ptr %6, align 8, !tbaa !11
  %18 = call ptr @ISEQ_COMPILE_DATA(ptr noundef %17)
  %19 = getelementptr inbounds nuw %struct.iseq_compile_data, ptr %18, i32 0, i32 12
  %20 = load i32, ptr %19, align 8, !tbaa !26
  store i32 %20, ptr %10, align 4, !tbaa !41
  %21 = load i32, ptr %10, align 4, !tbaa !41
  %22 = icmp eq i32 %21, 0
  br i1 %22, label %23, label %27

23:                                               ; preds = %16
  %24 = load ptr, ptr %6, align 8, !tbaa !11
  %25 = call i64 @rb_iseq_first_lineno(ptr noundef %24)
  %26 = call i32 @RB_FIX2INT(i64 noundef %25)
  store i32 %26, ptr %10, align 4, !tbaa !41
  br label %27

27:                                               ; preds = %23, %16
  %28 = load ptr, ptr %7, align 8, !tbaa !37
  %29 = load ptr, ptr %6, align 8, !tbaa !11
  %30 = load i32, ptr %10, align 4, !tbaa !41
  %31 = call ptr (ptr, i32, i32, i32, i32, ...) @new_insn_body(ptr noundef %29, i32 noundef %30, i32 noundef -1, i32 noundef 17, i32 noundef 0)
  call void @ADD_ELEM(ptr noundef %28, ptr noundef %31)
  call void @llvm.lifetime.end.p0(i64 4, ptr %10) #31
  br label %32

32:                                               ; preds = %27, %13
  store i32 1, ptr %5, align 4
  br label %39

33:                                               ; preds = %4
  %34 = load ptr, ptr %6, align 8, !tbaa !11
  %35 = load ptr, ptr %7, align 8, !tbaa !37
  %36 = load ptr, ptr %8, align 8, !tbaa !73
  %37 = load i32, ptr %9, align 4, !tbaa !41
  %38 = call i32 @iseq_compile_each0(ptr noundef %34, ptr noundef %35, ptr noundef %36, i32 noundef %37)
  store i32 %38, ptr %5, align 4
  br label %39

39:                                               ; preds = %33, %32
  %40 = load i32, ptr %5, align 4
  ret i32 %40
}

; Function Attrs: nounwind sspstrong uwtable
define internal void @ADD_ELEM(ptr noundef %0, ptr noundef %1) #0 {
  %3 = alloca ptr, align 8
  %4 = alloca ptr, align 8
  store ptr %0, ptr %3, align 8, !tbaa !37
  store ptr %1, ptr %4, align 8, !tbaa !39
  %5 = load ptr, ptr %3, align 8, !tbaa !37
  %6 = getelementptr inbounds nuw %struct.iseq_link_anchor, ptr %5, i32 0, i32 1
  %7 = load ptr, ptr %6, align 8, !tbaa !20
  %8 = load ptr, ptr %4, align 8, !tbaa !39
  %9 = getelementptr inbounds nuw %struct.iseq_link_element, ptr %8, i32 0, i32 2
  store ptr %7, ptr %9, align 8, !tbaa !40
  %10 = load ptr, ptr %4, align 8, !tbaa !39
  %11 = load ptr, ptr %3, align 8, !tbaa !37
  %12 = getelementptr inbounds nuw %struct.iseq_link_anchor, ptr %11, i32 0, i32 1
  %13 = load ptr, ptr %12, align 8, !tbaa !20
  %14 = getelementptr inbounds nuw %struct.iseq_link_element, ptr %13, i32 0, i32 1
  store ptr %10, ptr %14, align 8, !tbaa !22
  %15 = load ptr, ptr %4, align 8, !tbaa !39
  %16 = load ptr, ptr %3, align 8, !tbaa !37
  %17 = getelementptr inbounds nuw %struct.iseq_link_anchor, ptr %16, i32 0, i32 1
  store ptr %15, ptr %17, align 8, !tbaa !20
  %18 = load ptr, ptr %3, align 8, !tbaa !37
  call void @verify_list(ptr noundef @.str.34, ptr noundef %18)
  ret void
}

; Function Attrs: inlinehint nounwind sspstrong uwtable
define internal i32 @nd_line(ptr noundef %0) #3 {
  %2 = alloca i32, align 4
  %3 = alloca ptr, align 8
  %4 = alloca i64, align 8
  store ptr %0, ptr %3, align 8, !tbaa !73
  %5 = load ptr, ptr %3, align 8, !tbaa !73
  %6 = icmp ne ptr %5, null
  br i1 %6, label %8, label %7

7:                                                ; preds = %1
  store i32 -1, ptr %2, align 4
  br label %15

8:                                                ; preds = %1
  call void @llvm.lifetime.start.p0(i64 8, ptr %4) #31
  %9 = load ptr, ptr %3, align 8, !tbaa !73
  %10 = getelementptr inbounds nuw %struct.RNode, ptr %9, i32 0, i32 0
  %11 = load i64, ptr %10, align 8, !tbaa !104
  store i64 %11, ptr %4, align 8, !tbaa !7
  %12 = load i64, ptr %4, align 8, !tbaa !7
  %13 = ashr i64 %12, 15
  %14 = trunc i64 %13 to i32
  store i32 %14, ptr %2, align 4
  call void @llvm.lifetime.end.p0(i64 8, ptr %4) #31
  br label %15

15:                                               ; preds = %8, %7
  %16 = load i32, ptr %2, align 4
  ret i32 %16
}

; Function Attrs: nounwind sspstrong uwtable
define internal i32 @iseq_compile_pattern_constant(ptr noundef %0, ptr noundef %1, ptr noundef %2, ptr noundef %3, i1 noundef zeroext %4, i32 noundef %5) #0 {
  %7 = alloca i32, align 4
  %8 = alloca ptr, align 8
  %9 = alloca ptr, align 8
  %10 = alloca ptr, align 8
  %11 = alloca ptr, align 8
  %12 = alloca i8, align 1
  %13 = alloca i32, align 4
  %14 = alloca ptr, align 8
  %15 = alloca i32, align 4
  store ptr %0, ptr %8, align 8, !tbaa !11
  store ptr %1, ptr %9, align 8, !tbaa !37
  store ptr %2, ptr %10, align 8, !tbaa !73
  store ptr %3, ptr %11, align 8, !tbaa !82
  %16 = zext i1 %4 to i8
  store i8 %16, ptr %12, align 1, !tbaa !109
  store i32 %5, ptr %13, align 4, !tbaa !41
  call void @llvm.lifetime.start.p0(i64 8, ptr %14) #31
  %17 = load ptr, ptr %10, align 8, !tbaa !73
  store ptr %17, ptr %14, align 8, !tbaa !73
  %18 = load ptr, ptr %10, align 8, !tbaa !73
  %19 = getelementptr inbounds nuw %struct.RNode_ARYPTN, ptr %18, i32 0, i32 1
  %20 = load ptr, ptr %19, align 8, !tbaa !1208
  %21 = icmp ne ptr %20, null
  br i1 %21, label %22, label %87

22:                                               ; preds = %6
  %23 = load ptr, ptr %9, align 8, !tbaa !37
  %24 = load ptr, ptr %8, align 8, !tbaa !11
  %25 = load ptr, ptr %14, align 8, !tbaa !73
  %26 = call i32 @nd_line(ptr noundef %25)
  %27 = load ptr, ptr %14, align 8, !tbaa !73
  %28 = getelementptr inbounds nuw %struct.RNode, ptr %27, i32 0, i32 2
  %29 = load i32, ptr %28, align 8, !tbaa !93
  %30 = call ptr (ptr, i32, i32, i32, i32, ...) @new_insn_body(ptr noundef %24, i32 noundef %26, i32 noundef %29, i32 noundef 40, i32 noundef 0)
  call void @ADD_ELEM(ptr noundef %23, ptr noundef %30)
  %31 = load ptr, ptr %8, align 8, !tbaa !11
  %32 = load ptr, ptr %9, align 8, !tbaa !37
  %33 = load ptr, ptr %10, align 8, !tbaa !73
  %34 = getelementptr inbounds nuw %struct.RNode_ARYPTN, ptr %33, i32 0, i32 1
  %35 = load ptr, ptr %34, align 8, !tbaa !1208
  %36 = call i32 @iseq_compile_each(ptr noundef %31, ptr noundef %32, ptr noundef %35, i32 noundef 0)
  %37 = icmp ne i32 %36, 0
  br i1 %37, label %39, label %38

38:                                               ; preds = %22
  store i32 0, ptr %7, align 4
  store i32 1, ptr %15, align 4
  br label %88

39:                                               ; preds = %22
  %40 = load i8, ptr %12, align 1, !tbaa !109, !range !54, !noundef !55
  %41 = trunc i8 %40 to i1
  br i1 %41, label %42, label %51

42:                                               ; preds = %39
  %43 = load ptr, ptr %9, align 8, !tbaa !37
  %44 = load ptr, ptr %8, align 8, !tbaa !11
  %45 = load ptr, ptr %14, align 8, !tbaa !73
  %46 = call i32 @nd_line(ptr noundef %45)
  %47 = load ptr, ptr %14, align 8, !tbaa !73
  %48 = getelementptr inbounds nuw %struct.RNode, ptr %47, i32 0, i32 2
  %49 = load i32, ptr %48, align 8, !tbaa !93
  %50 = call ptr (ptr, i32, i32, i32, i32, ...) @new_insn_body(ptr noundef %44, i32 noundef %46, i32 noundef %49, i32 noundef 41, i32 noundef 1, i64 noundef 5)
  call void @ADD_ELEM(ptr noundef %43, ptr noundef %50)
  br label %51

51:                                               ; preds = %42, %39
  %52 = load ptr, ptr %9, align 8, !tbaa !37
  %53 = load ptr, ptr %8, align 8, !tbaa !11
  %54 = load ptr, ptr %14, align 8, !tbaa !73
  %55 = call i32 @nd_line(ptr noundef %54)
  %56 = load ptr, ptr %14, align 8, !tbaa !73
  %57 = getelementptr inbounds nuw %struct.RNode, ptr %56, i32 0, i32 2
  %58 = load i32, ptr %57, align 8, !tbaa !93
  %59 = call ptr (ptr, i32, i32, i32, i32, ...) @new_insn_body(ptr noundef %53, i32 noundef %55, i32 noundef %58, i32 noundef 49, i32 noundef 1, i64 noundef 5)
  call void @ADD_ELEM(ptr noundef %52, ptr noundef %59)
  %60 = load i8, ptr %12, align 1, !tbaa !109, !range !54, !noundef !55
  %61 = trunc i8 %60 to i1
  br i1 %61, label %62, label %72

62:                                               ; preds = %51
  %63 = load ptr, ptr %8, align 8, !tbaa !11
  %64 = load ptr, ptr %9, align 8, !tbaa !37
  %65 = load ptr, ptr %10, align 8, !tbaa !73
  %66 = load i32, ptr %13, align 4, !tbaa !41
  %67 = add i32 %66, 3
  %68 = call i32 @iseq_compile_pattern_set_eqq_errmsg(ptr noundef %63, ptr noundef %64, ptr noundef %65, i32 noundef %67)
  %69 = icmp ne i32 %68, 0
  br i1 %69, label %71, label %70

70:                                               ; preds = %62
  store i32 0, ptr %7, align 4
  store i32 1, ptr %15, align 4
  br label %88

71:                                               ; preds = %62
  br label %72

72:                                               ; preds = %71, %51
  %73 = load ptr, ptr %9, align 8, !tbaa !37
  %74 = load ptr, ptr %8, align 8, !tbaa !11
  %75 = load ptr, ptr %14, align 8, !tbaa !73
  %76 = call i32 @nd_line(ptr noundef %75)
  %77 = load ptr, ptr %14, align 8, !tbaa !73
  %78 = getelementptr inbounds nuw %struct.RNode, ptr %77, i32 0, i32 2
  %79 = load i32, ptr %78, align 8, !tbaa !93
  %80 = load ptr, ptr %11, align 8, !tbaa !82
  %81 = ptrtoint ptr %80 to i64
  %82 = call ptr (ptr, i32, i32, i32, i32, ...) @new_insn_body(ptr noundef %74, i32 noundef %76, i32 noundef %79, i32 noundef 73, i32 noundef 1, i64 noundef %81)
  call void @ADD_ELEM(ptr noundef %73, ptr noundef %82)
  %83 = load ptr, ptr %11, align 8, !tbaa !82
  %84 = getelementptr inbounds nuw %struct.iseq_label_data, ptr %83, i32 0, i32 5
  %85 = load i32, ptr %84, align 8, !tbaa !87
  %86 = add i32 %85, 1
  store i32 %86, ptr %84, align 8, !tbaa !87
  br label %87

87:                                               ; preds = %72, %6
  store i32 1, ptr %7, align 4
  store i32 1, ptr %15, align 4
  br label %88

88:                                               ; preds = %87, %70, %38
  call void @llvm.lifetime.end.p0(i64 8, ptr %14) #31
  %89 = load i32, ptr %7, align 4
  ret i32 %89
}