; Function Attrs: nounwind sspstrong uwtable
define internal fastcc range(i32 0, 2) i32 @iseq_compile_pattern_constant(ptr noundef %0, ptr noundef nonnull %1, ptr noundef captures(address_is_null) %2, ptr noundef %3, i1 noundef zeroext %4, i32 noundef %5) unnamed_addr #1 {
  %7 = getelementptr inbounds nuw i8, ptr %2, i64 32
  %8 = load ptr, ptr %7, align 8, !tbaa !1050
  %.not = icmp eq ptr %8, null
  br i1 %.not, label %71, label %nd_line.exit

nd_line.exit:                                     ; preds = %6
  %9 = load i64, ptr %2, align 8, !tbaa !169
  %10 = lshr i64 %9, 15
  %11 = trunc i64 %10 to i32
  %12 = getelementptr inbounds nuw i8, ptr %2, i64 24
  %13 = load i32, ptr %12, align 8, !tbaa !259
  %14 = tail call fastcc noundef ptr @new_insn_core(ptr noundef %0, i32 noundef %11, i32 noundef %13, i32 noundef 40, i32 noundef 0, ptr noundef null)
  %15 = getelementptr inbounds nuw i8, ptr %1, i64 24
  %16 = load ptr, ptr %15, align 8, !tbaa !7
  %17 = getelementptr inbounds nuw i8, ptr %14, i64 16
  store ptr %16, ptr %17, align 8, !tbaa !35
  %18 = getelementptr inbounds nuw i8, ptr %16, i64 8
  store ptr %14, ptr %18, align 8, !tbaa !36
  store ptr %14, ptr %15, align 8, !tbaa !7
  %19 = load ptr, ptr %7, align 8, !tbaa !1050
  %20 = icmp eq ptr %19, null
  br i1 %20, label %ISEQ_COMPILE_DATA.exit.i, label %iseq_compile_each.exit

ISEQ_COMPILE_DATA.exit.i:                         ; preds = %nd_line.exit
  %21 = load i64, ptr %0, align 8, !tbaa !19
  %22 = and i64 %21, 262144
  %.not.i.i = icmp ne i64 %22, 0
  tail call void @llvm.assume(i1 %.not.i.i)
  %23 = getelementptr inbounds nuw i8, ptr %0, i64 24
  %24 = load ptr, ptr %23, align 8, !tbaa !22
  %25 = getelementptr inbounds nuw i8, ptr %24, i64 96
  %26 = load i32, ptr %25, align 8, !tbaa !23
  %27 = icmp eq i32 %26, 0
  br i1 %27, label %28, label %iseq_compile_each.exit.thread

28:                                               ; preds = %ISEQ_COMPILE_DATA.exit.i
  %29 = tail call i64 @rb_iseq_first_lineno(ptr noundef nonnull %0) #38
  %30 = tail call i64 @rb_fix2int(i64 noundef %29) #38
  %31 = trunc i64 %30 to i32
  br label %iseq_compile_each.exit.thread

iseq_compile_each.exit.thread:                    ; preds = %ISEQ_COMPILE_DATA.exit.i, %28
  %.0.i31 = phi i32 [ %31, %28 ], [ %26, %ISEQ_COMPILE_DATA.exit.i ]
  %32 = tail call fastcc noundef ptr @new_insn_core(ptr noundef nonnull %0, i32 noundef %.0.i31, i32 noundef -1, i32 noundef 17, i32 noundef 0, ptr noundef null)
  %33 = load ptr, ptr %15, align 8, !tbaa !7
  %34 = getelementptr inbounds nuw i8, ptr %32, i64 16
  store ptr %33, ptr %34, align 8, !tbaa !35
  %35 = getelementptr inbounds nuw i8, ptr %33, i64 8
  store ptr %32, ptr %35, align 8, !tbaa !36
  store ptr %32, ptr %15, align 8, !tbaa !7
  br label %37

iseq_compile_each.exit:                           ; preds = %nd_line.exit
  %36 = tail call fastcc i32 @iseq_compile_each0(ptr noundef %0, ptr noundef nonnull %1, ptr noundef %19, i32 noundef 0)
  %.not29 = icmp eq i32 %36, 0
  br i1 %.not29, label %71, label %37

37:                                               ; preds = %iseq_compile_each.exit.thread, %iseq_compile_each.exit
  %38 = load i64, ptr %2, align 8, !tbaa !169
  %39 = lshr i64 %38, 15
  %40 = trunc i64 %39 to i32
  %41 = load i32, ptr %12, align 8, !tbaa !259
  br i1 %4, label %nd_line.exit37, label %nd_line.exit40

nd_line.exit37:                                   ; preds = %37
  %42 = tail call ptr (ptr, i32, i32, i32, i32, ...) @new_insn_body(ptr noundef %0, i32 noundef %40, i32 noundef %41, i32 noundef 41, i32 noundef 1, i64 noundef 5)
  %43 = load ptr, ptr %15, align 8, !tbaa !7
  %44 = getelementptr inbounds nuw i8, ptr %42, i64 16
  store ptr %43, ptr %44, align 8, !tbaa !35
  %45 = getelementptr inbounds nuw i8, ptr %43, i64 8
  store ptr %42, ptr %45, align 8, !tbaa !36
  store ptr %42, ptr %15, align 8, !tbaa !7
  %46 = load i64, ptr %2, align 8, !tbaa !169
  %47 = lshr i64 %46, 15
  %48 = trunc i64 %47 to i32
  %49 = load i32, ptr %12, align 8, !tbaa !259
  %50 = tail call ptr (ptr, i32, i32, i32, i32, ...) @new_insn_body(ptr noundef %0, i32 noundef %48, i32 noundef %49, i32 noundef 49, i32 noundef 1, i64 noundef 5)
  %51 = load ptr, ptr %15, align 8, !tbaa !7
  %52 = getelementptr inbounds nuw i8, ptr %50, i64 16
  store ptr %51, ptr %52, align 8, !tbaa !35
  %53 = getelementptr inbounds nuw i8, ptr %51, i64 8
  store ptr %50, ptr %53, align 8, !tbaa !36
  store ptr %50, ptr %15, align 8, !tbaa !7
  %54 = add i32 %5, 3
  tail call fastcc void @iseq_compile_pattern_set_eqq_errmsg(ptr noundef %0, ptr noundef %1, ptr noundef nonnull %2, i32 noundef %54)
  br label %nd_line.exit43

nd_line.exit40:                                   ; preds = %37
  %55 = tail call ptr (ptr, i32, i32, i32, i32, ...) @new_insn_body(ptr noundef %0, i32 noundef %40, i32 noundef %41, i32 noundef 49, i32 noundef 1, i64 noundef 5)
  %56 = load ptr, ptr %15, align 8, !tbaa !7
  %57 = getelementptr inbounds nuw i8, ptr %55, i64 16
  store ptr %56, ptr %57, align 8, !tbaa !35
  %58 = getelementptr inbounds nuw i8, ptr %56, i64 8
  store ptr %55, ptr %58, align 8, !tbaa !36
  store ptr %55, ptr %15, align 8, !tbaa !7
  br label %nd_line.exit43

nd_line.exit43:                                   ; preds = %nd_line.exit40, %nd_line.exit37
  %59 = load i64, ptr %2, align 8, !tbaa !169
  %60 = lshr i64 %59, 15
  %61 = trunc i64 %60 to i32
  %62 = load i32, ptr %12, align 8, !tbaa !259
  %63 = ptrtoint ptr %3 to i64
  %64 = tail call ptr (ptr, i32, i32, i32, i32, ...) @new_insn_body(ptr noundef %0, i32 noundef %61, i32 noundef %62, i32 noundef 73, i32 noundef 1, i64 noundef %63)
  %65 = load ptr, ptr %15, align 8, !tbaa !7
  %66 = getelementptr inbounds nuw i8, ptr %64, i64 16
  store ptr %65, ptr %66, align 8, !tbaa !35
  %67 = getelementptr inbounds nuw i8, ptr %65, i64 8
  store ptr %64, ptr %67, align 8, !tbaa !36
  store ptr %64, ptr %15, align 8, !tbaa !7
  %68 = getelementptr inbounds nuw i8, ptr %3, i64 40
  %69 = load i32, ptr %68, align 8, !tbaa !189
  %70 = add i32 %69, 1
  store i32 %70, ptr %68, align 8, !tbaa !189
  br label %71

71:                                               ; preds = %6, %nd_line.exit43, %iseq_compile_each.exit
  %.0 = phi i32 [ 0, %iseq_compile_each.exit ], [ 1, %nd_line.exit43 ], [ 1, %6 ]
  ret i32 %.0
}